target datalayout = "e-m:e-p270:32:32-p271:32:32-p272:64:64-i64:64-i128:128-f80:128-n8:16:32:64-S128"
target triple = "x86_64-pc-linux-gnu"

%struct.Aig_Obj_t_ = type { %union.anon, ptr, ptr, i64, i32, i32, %union.anon.0 }
%union.anon = type { ptr }
%union.anon.0 = type { ptr }
%struct.Aig_Man_t_ = type { ptr, ptr, ptr, ptr, ptr, ptr, ptr, %struct.Aig_Obj_t_, i32, i32, i32, i32, i32, i32, [7 x i32], i32, ptr, i32, ptr, i32, ptr, i32, i32, i32, ptr, i32, i32, i32, i32, i32, ptr, ptr, i32, ptr, ptr, i32, ptr, ptr, i32, i32, i32, ptr, ptr, ptr, ptr, ptr, ptr, ptr, ptr, ptr, ptr, ptr, ptr, ptr, ptr, i32, ptr, ptr, ptr, ptr, i32, i64, i64, i64, ptr, ptr }
%struct.Vec_Ptr_t_ = type { i32, i32, ptr }

; Function Attrs: inlinehint nounwind uwtable
define internal ptr @Vec_PtrEntry(ptr noundef %0, i32 noundef %1) #2 {
  %3 = alloca ptr, align 8
  %4 = alloca i32, align 4
  store ptr %0, ptr %3, align 8, !tbaa !8
  store i32 %1, ptr %4, align 4, !tbaa !10
  %5 = load ptr, ptr %3, align 8, !tbaa !8
  %6 = getelementptr inbounds nuw %struct.Vec_Ptr_t_, ptr %5, i32 0, i32 2
  %7 = load ptr, ptr %6, align 8, !tbaa !29
  %8 = load i32, ptr %4, align 4, !tbaa !10
  %9 = sext i32 %8 to i64
  %10 = getelementptr inbounds ptr, ptr %7, i64 %9
  %11 = load ptr, ptr %10, align 8, !tbaa !31
  ret ptr %11
}

; Function Attrs: inlinehint nounwind uwtable
define internal i32 @Saig_ManPiNum(ptr noundef %0) #2 {
  %2 = alloca ptr, align 8
  store ptr %0, ptr %2, align 8, !tbaa !3
  %3 = load ptr, ptr %2, align 8, !tbaa !3
  %4 = getelementptr inbounds nuw %struct.Aig_Man_t_, ptr %3, i32 0, i32 9
  %5 = load i32, ptr %4, align 4, !tbaa !36
  ret i32 %5
}

; Function Attrs: inlinehint nounwind uwtable
define internal i32 @Saig_ManRegNum(ptr noundef %0) #2 {
  %2 = alloca ptr, align 8
  store ptr %0, ptr %2, align 8, !tbaa !3
  %3 = load ptr, ptr %2, align 8, !tbaa !3
  %4 = getelementptr inbounds nuw %struct.Aig_Man_t_, ptr %3, i32 0, i32 8
  %5 = load i32, ptr %4, align 8, !tbaa !35
  ret i32 %5
}

; Function Attrs: nounwind uwtable
define void @Saig_SynchInitRegsTernary(ptr noundef %0, ptr noundef %1, i32 noundef %2) #0 {
  %4 = alloca ptr, align 8
  %5 = alloca ptr, align 8
  %6 = alloca i32, align 4
  %7 = alloca ptr, align 8
  %8 = alloca ptr, align 8
  %9 = alloca i32, align 4
  %10 = alloca i32, align 4
  store ptr %0, ptr %4, align 8, !tbaa !3
  store ptr %1, ptr %5, align 8, !tbaa !8
  store i32 %2, ptr %6, align 4, !tbaa !10
  call void @llvm.lifetime.start.p0(i64 8, ptr %7) #10
  call void @llvm.lifetime.start.p0(i64 8, ptr %8) #10
  call void @llvm.lifetime.start.p0(i64 4, ptr %9) #10
  call void @llvm.lifetime.start.p0(i64 4, ptr %10) #10
  store i32 0, ptr %9, align 4, !tbaa !10
  br label %11

11:                                               ; preds = %46, %3
  %12 = load i32, ptr %9, align 4, !tbaa !10
  %13 = load ptr, ptr %4, align 8, !tbaa !3
  %14 = call i32 @Saig_ManRegNum(ptr noundef %13)
  %15 = icmp slt i32 %12, %14
  br i1 %15, label %16, label %25

16:                                               ; preds = %11
  %17 = load ptr, ptr %4, align 8, !tbaa !3
  %18 = getelementptr inbounds nuw %struct.Aig_Man_t_, ptr %17, i32 0, i32 2
  %19 = load ptr, ptr %18, align 8, !tbaa !32
  %20 = load i32, ptr %9, align 4, !tbaa !10
  %21 = load ptr, ptr %4, align 8, !tbaa !3
  %22 = call i32 @Saig_ManPiNum(ptr noundef %21)
  %23 = add nsw i32 %20, %22
  %24 = call ptr @Vec_PtrEntry(ptr noundef %19, i32 noundef %23)
  store ptr %24, ptr %7, align 8, !tbaa !12
  br label %25

25:                                               ; preds = %16, %11
  %26 = phi i1 [ false, %11 ], [ true, %16 ]
  br i1 %26, label %27, label %49

27:                                               ; preds = %25
  %28 = load ptr, ptr %5, align 8, !tbaa !8
  %29 = load ptr, ptr %7, align 8, !tbaa !12
  %30 = getelementptr inbounds nuw %struct.Aig_Obj_t_, ptr %29, i32 0, i32 5
  %31 = load i32, ptr %30, align 4, !tbaa !14
  %32 = call ptr @Vec_PtrEntry(ptr noundef %28, i32 noundef %31)
  store ptr %32, ptr %8, align 8, !tbaa !16
  store i32 0, ptr %10, align 4, !tbaa !10
  br label %33

33:                                               ; preds = %42, %27
  %34 = load i32, ptr %10, align 4, !tbaa !10
  %35 = load i32, ptr %6, align 4, !tbaa !10
  %36 = icmp slt i32 %34, %35
  br i1 %36, label %37, label %45

37:                                               ; preds = %33
  %38 = load ptr, ptr %8, align 8, !tbaa !16
  %39 = load i32, ptr %10, align 4, !tbaa !10
  %40 = sext i32 %39 to i64
  %41 = getelementptr inbounds i32, ptr %38, i64 %40
  store i32 -1, ptr %41, align 4, !tbaa !10
  br label %42

42:                                               ; preds = %37
  %43 = load i32, ptr %10, align 4, !tbaa !10
  %44 = add nsw i32 %43, 1
  store i32 %44, ptr %10, align 4, !tbaa !10
  br label %33, !llvm.loop !33

45:                                               ; preds = %33
  br label %46

46:                                               ; preds = %45
  %47 = load i32, ptr %9, align 4, !tbaa !10
  %48 = add nsw i32 %47, 1
  store i32 %48, ptr %9, align 4, !tbaa !10
  br label %11, !llvm.loop !34

49:                                               ; preds = %25
  call void @llvm.lifetime.end.p0(i64 4, ptr %10) #10
  call void @llvm.lifetime.end.p0(i64 4, ptr %9) #10
  call void @llvm.lifetime.end.p0(i64 8, ptr %8) #10
  call void @llvm.lifetime.end.p0(i64 8, ptr %7) #10
  ret void
}