; Function Attrs: nofree norecurse nosync nounwind memory(readwrite, inaccessiblemem: none) uwtable
define void @Saig_SynchInitRegsTernary(ptr noundef readonly captures(none) %0, ptr noundef readonly captures(none) %1, i32 noundef %2) local_unnamed_addr #2 {
  %4 = getelementptr i8, ptr %0, i64 104
  %.val1417 = load i32, ptr %4, align 8, !tbaa !26
  %5 = icmp sgt i32 %.val1417, 0
  br i1 %5, label %.lr.ph20, label %.critedge

.lr.ph20:                                         ; preds = %3
  %6 = getelementptr inbounds nuw i8, ptr %0, i64 16
  %7 = load ptr, ptr %6, align 8, !tbaa !27
  %8 = getelementptr i8, ptr %0, i64 108
  %9 = getelementptr i8, ptr %7, i64 8
  %.val13 = load ptr, ptr %9, align 8, !tbaa !3
  %10 = getelementptr i8, ptr %1, i64 8
  %.val = load ptr, ptr %10, align 8, !tbaa !3
  %11 = icmp sgt i32 %2, 0
  br i1 %11, label %.lr.ph.us.preheader, label %.critedge

.lr.ph.us.preheader:                              ; preds = %.lr.ph20
  %12 = zext nneg i32 %2 to i64
  %13 = shl nuw nsw i64 %12, 2
  br label %.lr.ph.us

.lr.ph.us:                                        ; preds = %.lr.ph.us.preheader, %.lr.ph.us
  %.01218.us = phi i32 [ %23, %.lr.ph.us ], [ 0, %.lr.ph.us.preheader ]
  %.val15.us = load i32, ptr %8, align 4, !tbaa !28
  %14 = add nsw i32 %.val15.us, %.01218.us
  %15 = sext i32 %14 to i64
  %16 = getelementptr inbounds ptr, ptr %.val13, i64 %15
  %17 = load ptr, ptr %16, align 8, !tbaa !24
  %18 = getelementptr inbounds nuw i8, ptr %17, i64 36
  %19 = load i32, ptr %18, align 4, !tbaa !23
  %20 = sext i32 %19 to i64
  %21 = getelementptr inbounds ptr, ptr %.val, i64 %20
  %22 = load ptr, ptr %21, align 8, !tbaa !24
  tail call void @llvm.memset.p0.i64(ptr align 4 %22, i8 -1, i64 %13, i1 false), !tbaa !25
  %23 = add nuw nsw i32 %.01218.us, 1
  %.val14.us = load i32, ptr %4, align 8, !tbaa !26
  %24 = icmp slt i32 %23, %.val14.us
  br i1 %24, label %.lr.ph.us, label %.critedge, !llvm.loop !29

.critedge:                                        ; preds = %.lr.ph.us, %.lr.ph20, %3
  ret void
}